target datalayout = "e-m:e-p270:32:32-p271:32:32-p272:64:64-i64:64-i128:128-f80:128-n8:16:32:64-S128"
target triple = "x86_64-pc-linux-gnu"

%"class.OpenSubdiv::v3_6_0::Bfr::VertexDescriptor" = type { i8, i16, float, %"class.OpenSubdiv::v3_6_0::Vtr::internal::StackBuffer", %"class.OpenSubdiv::v3_6_0::Vtr::internal::StackBuffer.0" }
%"class.OpenSubdiv::v3_6_0::Vtr::internal::StackBuffer" = type { ptr, i32, i32, [64 x i8], ptr }
%"class.OpenSubdiv::v3_6_0::Vtr::internal::StackBuffer.0" = type { ptr, i32, i32, [32 x i8], ptr }

; Function Attrs: mustprogress nounwind uwtable
define linkonce_odr noundef i32 @_ZN10OpenSubdiv6v3_6_03Bfr6Limits11MaxFaceSizeEv() #1 comdat align 2 {
  ret i32 65535
}

; Function Attrs: mustprogress nounwind uwtable
define linkonce_odr noundef ptr @_ZN10OpenSubdiv6v3_6_03Vtr8internal11StackBufferIiLj8ELb1EEcvPiEv(ptr noundef nonnull align 8 dereferenceable(56) %0) #1 comdat align 2 {
  %2 = alloca ptr, align 8
  store ptr %0, ptr %2, align 8
  %3 = load ptr, ptr %2, align 8
  %4 = getelementptr inbounds nuw %"class.OpenSubdiv::v3_6_0::Vtr::internal::StackBuffer.0", ptr %3, i32 0, i32 0
  %5 = load ptr, ptr %4, align 8
  ret ptr %5
}

; Function Attrs: mustprogress uwtable
define noundef zeroext i1 @_ZN10OpenSubdiv6v3_6_03Bfr16VertexDescriptor8FinalizeEv(ptr noundef nonnull align 8 dereferenceable(152) %0) #0 align 2 {
  %2 = alloca i1, align 1
  %3 = alloca ptr, align 8
  %4 = alloca i32, align 4
  %5 = alloca i8, align 1
  %6 = alloca i32, align 4
  %7 = alloca i32, align 4
  %8 = alloca i32, align 4
  store ptr %0, ptr %3, align 8
  %9 = load ptr, ptr %3, align 8
  %10 = load i8, ptr %9, align 8
  %11 = and i8 %10, 1
  %12 = zext i8 %11 to i16
  %13 = icmp ne i16 %12, 0
  br i1 %13, label %15, label %14

14:                                               ; preds = %1
  store i1 false, ptr %2, align 1
  br label %91

15:                                               ; preds = %1
  %16 = load i8, ptr %9, align 8
  %17 = lshr i8 %16, 5
  %18 = and i8 %17, 1
  %19 = zext i8 %18 to i16
  %20 = icmp ne i16 %19, 0
  br i1 %20, label %21, label %87

21:                                               ; preds = %15
  %22 = getelementptr inbounds nuw %"class.OpenSubdiv::v3_6_0::Bfr::VertexDescriptor", ptr %9, i32 0, i32 4
  %23 = call noundef ptr @_ZN10OpenSubdiv6v3_6_03Vtr8internal11StackBufferIiLj8ELb1EEcvPiEv(ptr noundef nonnull align 8 dereferenceable(56) %22)
  %24 = getelementptr inbounds i32, ptr %23, i64 0
  %25 = load i32, ptr %24, align 4
  store i32 %25, ptr %4, align 4
  store i8 1, ptr %5, align 1
  store i32 0, ptr %6, align 4
  store i32 0, ptr %7, align 4
  br label %26

26:                                               ; preds = %69, %21
  %27 = load i32, ptr %7, align 4
  %28 = getelementptr inbounds nuw %"class.OpenSubdiv::v3_6_0::Bfr::VertexDescriptor", ptr %9, i32 0, i32 1
  %29 = load i16, ptr %28, align 2
  %30 = sext i16 %29 to i32
  %31 = icmp slt i32 %27, %30
  br i1 %31, label %32, label %72

32:                                               ; preds = %26
  %33 = getelementptr inbounds nuw %"class.OpenSubdiv::v3_6_0::Bfr::VertexDescriptor", ptr %9, i32 0, i32 4
  %34 = call noundef ptr @_ZN10OpenSubdiv6v3_6_03Vtr8internal11StackBufferIiLj8ELb1EEcvPiEv(ptr noundef nonnull align 8 dereferenceable(56) %33)
  %35 = load i32, ptr %7, align 4
  %36 = sext i32 %35 to i64
  %37 = getelementptr inbounds i32, ptr %34, i64 %36
  %38 = load i32, ptr %37, align 4
  store i32 %38, ptr %8, align 4
  %39 = load i32, ptr %8, align 4
  %40 = icmp slt i32 %39, 3
  br i1 %40, label %45, label %41

41:                                               ; preds = %32
  %42 = load i32, ptr %8, align 4
  %43 = call noundef i32 @_ZN10OpenSubdiv6v3_6_03Bfr6Limits11MaxFaceSizeEv()
  %44 = icmp sgt i32 %42, %43
  br i1 %44, label %45, label %49

45:                                               ; preds = %41, %32
  %46 = load i8, ptr %9, align 8
  %47 = and i8 %46, -2
  %48 = or i8 %47, 0
  store i8 %48, ptr %9, align 8
  store i1 false, ptr %2, align 1
  br label %91

49:                                               ; preds = %41
  %50 = load i32, ptr %8, align 4
  %51 = load i32, ptr %4, align 4
  %52 = icmp eq i32 %50, %51
  %53 = zext i1 %52 to i32
  %54 = load i8, ptr %5, align 1
  %55 = trunc i8 %54 to i1
  %56 = zext i1 %55 to i32
  %57 = and i32 %56, %53
  %58 = icmp ne i32 %57, 0
  %59 = zext i1 %58 to i8
  store i8 %59, ptr %5, align 1
  %60 = load i32, ptr %6, align 4
  %61 = getelementptr inbounds nuw %"class.OpenSubdiv::v3_6_0::Bfr::VertexDescriptor", ptr %9, i32 0, i32 4
  %62 = call noundef ptr @_ZN10OpenSubdiv6v3_6_03Vtr8internal11StackBufferIiLj8ELb1EEcvPiEv(ptr noundef nonnull align 8 dereferenceable(56) %61)
  %63 = load i32, ptr %7, align 4
  %64 = sext i32 %63 to i64
  %65 = getelementptr inbounds i32, ptr %62, i64 %64
  store i32 %60, ptr %65, align 4
  %66 = load i32, ptr %8, align 4
  %67 = load i32, ptr %6, align 4
  %68 = add nsw i32 %67, %66
  store i32 %68, ptr %6, align 4
  br label %69

69:                                               ; preds = %49
  %70 = load i32, ptr %7, align 4
  %71 = add nsw i32 %70, 1
  store i32 %71, ptr %7, align 4
  br label %26, !llvm.loop !5

72:                                               ; preds = %26
  %73 = load i32, ptr %6, align 4
  %74 = getelementptr inbounds nuw %"class.OpenSubdiv::v3_6_0::Bfr::VertexDescriptor", ptr %9, i32 0, i32 4
  %75 = call noundef ptr @_ZN10OpenSubdiv6v3_6_03Vtr8internal11StackBufferIiLj8ELb1EEcvPiEv(ptr noundef nonnull align 8 dereferenceable(56) %74)
  %76 = getelementptr inbounds nuw %"class.OpenSubdiv::v3_6_0::Bfr::VertexDescriptor", ptr %9, i32 0, i32 1
  %77 = load i16, ptr %76, align 2
  %78 = sext i16 %77 to i64
  %79 = getelementptr inbounds i32, ptr %75, i64 %78
  store i32 %73, ptr %79, align 4
  %80 = load i8, ptr %5, align 1
  %81 = trunc i8 %80 to i1
  br i1 %81, label %82, label %86

82:                                               ; preds = %72
  %83 = load i8, ptr %9, align 8
  %84 = and i8 %83, -33
  %85 = or i8 %84, 0
  store i8 %85, ptr %9, align 8
  br label %86

86:                                               ; preds = %82, %72
  br label %87

87:                                               ; preds = %86, %15
  %88 = load i8, ptr %9, align 8
  %89 = and i8 %88, -5
  %90 = or i8 %89, 4
  store i8 %90, ptr %9, align 8
  store i1 true, ptr %2, align 1
  br label %91

91:                                               ; preds = %87, %45, %14
  %92 = load i1, ptr %2, align 1
  ret i1 %92
}