; Function Attrs: mustprogress nofree norecurse nosync nounwind memory(readwrite, inaccessiblemem: none) uwtable
define noundef zeroext i1 @_ZN10OpenSubdiv6v3_6_03Bfr16VertexDescriptor8FinalizeEv(ptr nocapture noundef nonnull align 8 dereferenceable(152) %0) local_unnamed_addr #1 align 2 {
  %2 = load i8, ptr %0, align 8
  %3 = and i8 %2, 1
  %.not = icmp eq i8 %3, 0
  br i1 %.not, label %38, label %4

4:                                                ; preds = %1
  %5 = and i8 %2, 32
  %.not19 = icmp eq i8 %5, 0
  br i1 %.not19, label %35, label %6

6:                                                ; preds = %4
  %7 = getelementptr inbounds nuw i8, ptr %0, i64 96
  %8 = load ptr, ptr %7, align 8
  %9 = load i32, ptr %8, align 4
  %10 = getelementptr inbounds nuw i8, ptr %0, i64 2
  %11 = load i16, ptr %10, align 2
  %12 = icmp sgt i16 %11, 0
  br i1 %12, label %.lr.ph, label %.critedge

.lr.ph:                                           ; preds = %6, %20
  %indvars.iv = phi i64 [ %indvars.iv.next, %20 ], [ 0, %6 ]
  %.01624 = phi i32 [ %23, %20 ], [ 0, %6 ]
  %.01723 = phi i1 [ %22, %20 ], [ true, %6 ]
  %13 = load ptr, ptr %7, align 8
  %14 = getelementptr inbounds i32, ptr %13, i64 %indvars.iv
  %15 = load i32, ptr %14, align 4
  %16 = add i32 %15, -65536
  %or.cond = icmp ult i32 %16, -65533
  br i1 %or.cond, label %17, label %20

17:                                               ; preds = %.lr.ph
  %18 = load i8, ptr %0, align 8
  %19 = and i8 %18, -2
  br label %.sink.split

20:                                               ; preds = %.lr.ph
  %21 = icmp eq i32 %15, %9
  %22 = and i1 %.01723, %21
  store i32 %.01624, ptr %14, align 4
  %23 = add nuw nsw i32 %15, %.01624
  %indvars.iv.next = add nuw nsw i64 %indvars.iv, 1
  %24 = load i16, ptr %10, align 2
  %25 = sext i16 %24 to i64
  %26 = icmp slt i64 %indvars.iv.next, %25
  br i1 %26, label %.lr.ph, label %._crit_edge, !llvm.loop !5

._crit_edge:                                      ; preds = %20
  %27 = load ptr, ptr %7, align 8
  %28 = sext i16 %24 to i64
  %29 = getelementptr inbounds i32, ptr %27, i64 %28
  store i32 %23, ptr %29, align 4
  br i1 %22, label %32, label %._crit_edge._crit_edge

._crit_edge._crit_edge:                           ; preds = %._crit_edge
  %.pre = load i8, ptr %0, align 8
  br label %35

.critedge:                                        ; preds = %6
  %30 = sext i16 %11 to i64
  %31 = getelementptr inbounds i32, ptr %8, i64 %30
  store i32 0, ptr %31, align 4
  br label %32

32:                                               ; preds = %.critedge, %._crit_edge
  %33 = load i8, ptr %0, align 8
  %34 = and i8 %33, -33
  br label %35

35:                                               ; preds = %._crit_edge._crit_edge, %32, %4
  %36 = phi i8 [ %.pre, %._crit_edge._crit_edge ], [ %34, %32 ], [ %2, %4 ]
  %37 = or i8 %36, 4
  br label %.sink.split

.sink.split:                                      ; preds = %17, %35
  %.sink = phi i8 [ %37, %35 ], [ %19, %17 ]
  %.0.ph = phi i1 [ true, %35 ], [ false, %17 ]
  store i8 %.sink, ptr %0, align 8
  br label %38

38:                                               ; preds = %.sink.split, %1
  %.0 = phi i1 [ false, %1 ], [ %.0.ph, %.sink.split ]
  ret i1 %.0
}